; Function Attrs: mustprogress uwtable
define void @_ZN7openvdb5v11_02io6Stream8getGridsEv(ptr noalias sret(%"class.std::shared_ptr.5") align 8 %agg.result, ptr nocapture noundef nonnull readonly align 8 dereferenceable(80) %this) local_unnamed_addr #5 align 2 personality ptr @__gxx_personality_v0 {
entry:
  %mImpl = getelementptr inbounds i8, ptr %this, i64 72
  %0 = load ptr, ptr %mImpl, align 8
  %mFile = getelementptr inbounds i8, ptr %0, i64 40
  %1 = load ptr, ptr %mFile, align 8
  %cmp.i.not = icmp eq ptr %1, null
  br i1 %cmp.i.not, label %if.end, label %if.then

if.then:                                          ; preds = %entry
  tail call void @_ZNK7openvdb5v11_02io4File8getGridsEv(ptr sret(%"class.std::shared_ptr.5") align 8 %agg.result, ptr noundef nonnull align 8 dereferenceable(80) %1)
  br label %return

if.end:                                           ; preds = %entry
  %mGrids = getelementptr inbounds i8, ptr %0, i64 16
  %2 = load ptr, ptr %mGrids, align 8
  store ptr %2, ptr %agg.result, align 8
  %_M_refcount.i.i = getelementptr inbounds i8, ptr %agg.result, i64 8
  %_M_refcount3.i.i = getelementptr inbounds i8, ptr %0, i64 24
  %3 = load ptr, ptr %_M_refcount3.i.i, align 8
  store ptr %3, ptr %_M_refcount.i.i, align 8
  %cmp.not.i.i.i = icmp eq ptr %3, null
  br i1 %cmp.not.i.i.i, label %return, label %if.then.i.i.i

if.then.i.i.i:                                    ; preds = %if.end
  %_M_use_count.i.i.i.i = getelementptr inbounds i8, ptr %3, i64 8
  %4 = load i8, ptr @__libc_single_threaded, align 1
  %tobool.i.i.not.i.i.i.i = icmp eq i8 %4, 0
  br i1 %tobool.i.i.not.i.i.i.i, label %if.else.i.i.i.i.i, label %if.then.i.i.i.i.i

if.then.i.i.i.i.i:                                ; preds = %if.then.i.i.i
  %5 = load i32, ptr %_M_use_count.i.i.i.i, align 4
  %add.i.i.i.i.i = add nsw i32 %5, 1
  store i32 %add.i.i.i.i.i, ptr %_M_use_count.i.i.i.i, align 4
  br label %return

if.else.i.i.i.i.i:                                ; preds = %if.then.i.i.i
  %6 = atomicrmw volatile add ptr %_M_use_count.i.i.i.i, i32 1 acq_rel, align 4
  br label %return

return:                                           ; preds = %if.else.i.i.i.i.i, %if.then.i.i.i.i.i, %if.end, %if.then
  ret void
}